; Function Attrs: mustprogress nounwind uwtable
define noundef zeroext i1 @_ZN8proxygen11HTTP1xCodec20supportsNextProtocolERKNSt7__cxx1112basic_stringIcSt11char_traitsIcESaIcEEE(ptr noundef nonnull align 8 dereferenceable(32) %npn) local_unnamed_addr #5 align 2 {
entry:
  %call = tail call noundef i64 @_ZNKSt7__cxx1112basic_stringIcSt11char_traitsIcESaIcEE6lengthEv(ptr noundef nonnull align 8 dereferenceable(32) %npn) #25
  %cmp = icmp eq i64 %call, 8
  br i1 %cmp, label %land.rhs, label %land.end

land.rhs:                                         ; preds = %entry
  %call.i = tail call noundef i32 @_ZNKSt7__cxx1112basic_stringIcSt11char_traitsIcESaIcEE7compareEPKc(ptr noundef nonnull align 8 dereferenceable(32) %npn, ptr noundef nonnull @.str.63) #25
  %cmp.i = icmp eq i32 %call.i, 0
  br i1 %cmp.i, label %land.end, label %lor.rhs

lor.rhs:                                          ; preds = %land.rhs
  %call.i3 = tail call noundef i32 @_ZNKSt7__cxx1112basic_stringIcSt11char_traitsIcESaIcEE7compareEPKc(ptr noundef nonnull align 8 dereferenceable(32) %npn, ptr noundef nonnull @.str.64) #25
  %cmp.i4 = icmp eq i32 %call.i3, 0
  br label %land.end

land.end:                                         ; preds = %land.rhs, %lor.rhs, %entry
  %0 = phi i1 [ false, %entry ], [ true, %land.rhs ], [ %cmp.i4, %lor.rhs ]
  ret i1 %0
}